target datalayout = "e-m:e-p270:32:32-p271:32:32-p272:64:64-i64:64-i128:128-f80:128-n8:16:32:64-S128"
target triple = "x86_64-pc-linux-gnu"

%"class.cxx20::expected.102" = type { %"struct.cxx20::detail::expected_move_assign_base.103" }
%"struct.cxx20::detail::expected_move_assign_base.103" = type { %"struct.cxx20::detail::expected_copy_assign_base.104" }
%"struct.cxx20::detail::expected_copy_assign_base.104" = type { %"struct.cxx20::detail::expected_move_base.105" }
%"struct.cxx20::detail::expected_move_base.105" = type { %"struct.cxx20::detail::expected_copy_base.106" }
%"struct.cxx20::detail::expected_copy_base.106" = type { %"struct.cxx20::detail::expected_operations_base.107" }
%"struct.cxx20::detail::expected_operations_base.107" = type { %"struct.cxx20::detail::expected_view_base.108" }
%"struct.cxx20::detail::expected_view_base.108" = type { %"struct.cxx20::detail::expected_storage_base.109" }
%"struct.cxx20::detail::expected_storage_base.109" = type { i8, %union.anon.110 }
%union.anon.110 = type { %"struct.WasmEdge::RefVariant" }
%"struct.WasmEdge::RefVariant" = type { <2 x i64> }
%"class.WasmEdge::ValType" = type { %union.anon.96 }
%union.anon.96 = type { %struct.anon }
%struct.anon = type { i8, i8, i8, i8, i32 }
%"struct.std::array.489" = type { [2 x i64] }

; Function Attrs: mustprogress nounwind uwtable
define linkonce_odr hidden void @_ZN5cxx206detail21expected_storage_baseIN8WasmEdge10RefVariantENS2_7ErrCodeELb1ELb1EEC2IJS3_ETnPNSt9enable_ifIX18is_constructible_vIS3_DpT_EEvE4typeELPv0ELb1EEESt10in_place_tDpOS8_(ptr noundef nonnull align 16 dereferenceable(32) %0, ptr noundef nonnull align 16 dereferenceable(16) %1) unnamed_addr #2 comdat align 2 {
  %3 = alloca ptr, align 8
  %4 = alloca ptr, align 8
  store ptr %0, ptr %3, align 8
  store ptr %1, ptr %4, align 8
  %5 = load ptr, ptr %3, align 8
  %6 = getelementptr inbounds %"struct.cxx20::detail::expected_storage_base.109", ptr %5, i32 0, i32 0
  store i8 1, ptr %6, align 16
  %7 = getelementptr inbounds %"struct.cxx20::detail::expected_storage_base.109", ptr %5, i32 0, i32 1
  %8 = load ptr, ptr %4, align 8
  call void @llvm.memcpy.p0.p0.i64(ptr align 16 %7, ptr align 16 %8, i64 16, i1 false)
  ret void
}

; Function Attrs: mustprogress nounwind uwtable
define linkonce_odr hidden void @_ZN5cxx206detail18expected_view_baseIN8WasmEdge10RefVariantENS2_7ErrCodeEECI2NS0_21expected_storage_baseIS3_S4_Lb1ELb1EEEIJS3_ETnPNSt9enable_ifIX18is_constructible_vIS3_DpT_EEvE4typeELPv0ELb1EEESt10in_place_tDpOS8_(ptr noundef nonnull align 16 dereferenceable(32) %0, ptr noundef nonnull align 16 dereferenceable(16) %1) unnamed_addr #2 comdat align 2 {
  %3 = alloca ptr, align 8
  %4 = alloca ptr, align 8
  store ptr %0, ptr %3, align 8
  store ptr %1, ptr %4, align 8
  %5 = load ptr, ptr %3, align 8
  %6 = load ptr, ptr %4, align 8
  call void @_ZN5cxx206detail21expected_storage_baseIN8WasmEdge10RefVariantENS2_7ErrCodeELb1ELb1EEC2IJS3_ETnPNSt9enable_ifIX18is_constructible_vIS3_DpT_EEvE4typeELPv0ELb1EEESt10in_place_tDpOS8_(ptr noundef nonnull align 16 dereferenceable(32) %5, ptr noundef nonnull align 16 dereferenceable(16) %6) #18
  ret void
}

; Function Attrs: mustprogress nounwind uwtable
define linkonce_odr hidden void @_ZN5cxx206detail24expected_operations_baseIN8WasmEdge10RefVariantENS2_7ErrCodeEECI2NS0_21expected_storage_baseIS3_S4_Lb1ELb1EEEIJS3_ETnPNSt9enable_ifIX18is_constructible_vIS3_DpT_EEvE4typeELPv0ELb1EEESt10in_place_tDpOS8_(ptr noundef nonnull align 16 dereferenceable(32) %0, ptr noundef nonnull align 16 dereferenceable(16) %1) unnamed_addr #2 comdat align 2 {
  %3 = alloca ptr, align 8
  %4 = alloca ptr, align 8
  store ptr %0, ptr %3, align 8
  store ptr %1, ptr %4, align 8
  %5 = load ptr, ptr %3, align 8
  %6 = load ptr, ptr %4, align 8
  call void @_ZN5cxx206detail18expected_view_baseIN8WasmEdge10RefVariantENS2_7ErrCodeEECI2NS0_21expected_storage_baseIS3_S4_Lb1ELb1EEEIJS3_ETnPNSt9enable_ifIX18is_constructible_vIS3_DpT_EEvE4typeELPv0ELb1EEESt10in_place_tDpOS8_(ptr noundef nonnull align 16 dereferenceable(32) %5, ptr noundef nonnull align 16 dereferenceable(16) %6) #18
  ret void
}

; Function Attrs: mustprogress nounwind uwtable
define linkonce_odr hidden void @_ZN5cxx206detail18expected_copy_baseIN8WasmEdge10RefVariantENS2_7ErrCodeELb0EECI2NS0_21expected_storage_baseIS3_S4_Lb1ELb1EEEIJS3_ETnPNSt9enable_ifIX18is_constructible_vIS3_DpT_EEvE4typeELPv0ELb1EEESt10in_place_tDpOS8_(ptr noundef nonnull align 16 dereferenceable(32) %0, ptr noundef nonnull align 16 dereferenceable(16) %1) unnamed_addr #2 comdat align 2 {
  %3 = alloca ptr, align 8
  %4 = alloca ptr, align 8
  store ptr %0, ptr %3, align 8
  store ptr %1, ptr %4, align 8
  %5 = load ptr, ptr %3, align 8
  %6 = load ptr, ptr %4, align 8
  call void @_ZN5cxx206detail24expected_operations_baseIN8WasmEdge10RefVariantENS2_7ErrCodeEECI2NS0_21expected_storage_baseIS3_S4_Lb1ELb1EEEIJS3_ETnPNSt9enable_ifIX18is_constructible_vIS3_DpT_EEvE4typeELPv0ELb1EEESt10in_place_tDpOS8_(ptr noundef nonnull align 16 dereferenceable(32) %5, ptr noundef nonnull align 16 dereferenceable(16) %6) #18
  ret void
}

; Function Attrs: mustprogress nounwind uwtable
define linkonce_odr hidden void @_ZN5cxx206detail18expected_move_baseIN8WasmEdge10RefVariantENS2_7ErrCodeELb0EECI2NS0_21expected_storage_baseIS3_S4_Lb1ELb1EEEIJS3_ETnPNSt9enable_ifIX18is_constructible_vIS3_DpT_EEvE4typeELPv0ELb1EEESt10in_place_tDpOS8_(ptr noundef nonnull align 16 dereferenceable(32) %0, ptr noundef nonnull align 16 dereferenceable(16) %1) unnamed_addr #2 comdat align 2 {
  %3 = alloca ptr, align 8
  %4 = alloca ptr, align 8
  store ptr %0, ptr %3, align 8
  store ptr %1, ptr %4, align 8
  %5 = load ptr, ptr %3, align 8
  %6 = load ptr, ptr %4, align 8
  call void @_ZN5cxx206detail18expected_copy_baseIN8WasmEdge10RefVariantENS2_7ErrCodeELb0EECI2NS0_21expected_storage_baseIS3_S4_Lb1ELb1EEEIJS3_ETnPNSt9enable_ifIX18is_constructible_vIS3_DpT_EEvE4typeELPv0ELb1EEESt10in_place_tDpOS8_(ptr noundef nonnull align 16 dereferenceable(32) %5, ptr noundef nonnull align 16 dereferenceable(16) %6) #18
  ret void
}

; Function Attrs: mustprogress nounwind uwtable
define linkonce_odr hidden void @_ZN5cxx206detail25expected_copy_assign_baseIN8WasmEdge10RefVariantENS2_7ErrCodeELb0EECI2NS0_21expected_storage_baseIS3_S4_Lb1ELb1EEEIJS3_ETnPNSt9enable_ifIX18is_constructible_vIS3_DpT_EEvE4typeELPv0ELb1EEESt10in_place_tDpOS8_(ptr noundef nonnull align 16 dereferenceable(32) %0, ptr noundef nonnull align 16 dereferenceable(16) %1) unnamed_addr #2 comdat align 2 {
  %3 = alloca ptr, align 8
  %4 = alloca ptr, align 8
  store ptr %0, ptr %3, align 8
  store ptr %1, ptr %4, align 8
  %5 = load ptr, ptr %3, align 8
  %6 = load ptr, ptr %4, align 8
  call void @_ZN5cxx206detail18expected_move_baseIN8WasmEdge10RefVariantENS2_7ErrCodeELb0EECI2NS0_21expected_storage_baseIS3_S4_Lb1ELb1EEEIJS3_ETnPNSt9enable_ifIX18is_constructible_vIS3_DpT_EEvE4typeELPv0ELb1EEESt10in_place_tDpOS8_(ptr noundef nonnull align 16 dereferenceable(32) %5, ptr noundef nonnull align 16 dereferenceable(16) %6) #18
  ret void
}

; Function Attrs: mustprogress nounwind uwtable
define linkonce_odr hidden noundef nonnull align 8 dereferenceable(8) ptr @_ZNSt14__array_traitsImLm2EE6_S_refERA2_Kmm(ptr noundef nonnull align 8 dereferenceable(16) %0, i64 noundef %1) #2 comdat align 2 {
  %3 = alloca ptr, align 8
  %4 = alloca i64, align 8
  store ptr %0, ptr %3, align 8
  store i64 %1, ptr %4, align 8
  %5 = load ptr, ptr %3, align 8
  %6 = load i64, ptr %4, align 8
  %7 = getelementptr inbounds [2 x i64], ptr %5, i64 0, i64 %6
  ret ptr %7
}

; Function Attrs: mustprogress nounwind uwtable
define linkonce_odr hidden void @_ZN5cxx206detail26expected_default_ctor_baseIN8WasmEdge10RefVariantENS2_7ErrCodeELb1EEC2ESt10in_place_t(ptr noundef nonnull align 1 dereferenceable(1) %0) unnamed_addr #2 comdat align 2 {
  %2 = alloca ptr, align 8
  store ptr %0, ptr %2, align 8
  ret void
}

; Function Attrs: mustprogress nounwind uwtable
define linkonce_odr hidden void @_ZN5cxx206detail25expected_move_assign_baseIN8WasmEdge10RefVariantENS2_7ErrCodeELb0EECI2NS0_21expected_storage_baseIS3_S4_Lb1ELb1EEEIJS3_ETnPNSt9enable_ifIX18is_constructible_vIS3_DpT_EEvE4typeELPv0ELb1EEESt10in_place_tDpOS8_(ptr noundef nonnull align 16 dereferenceable(32) %0, ptr noundef nonnull align 16 dereferenceable(16) %1) unnamed_addr #2 comdat align 2 {
  %3 = alloca ptr, align 8
  %4 = alloca ptr, align 8
  store ptr %0, ptr %3, align 8
  store ptr %1, ptr %4, align 8
  %5 = load ptr, ptr %3, align 8
  %6 = load ptr, ptr %4, align 8
  call void @_ZN5cxx206detail25expected_copy_assign_baseIN8WasmEdge10RefVariantENS2_7ErrCodeELb0EECI2NS0_21expected_storage_baseIS3_S4_Lb1ELb1EEEIJS3_ETnPNSt9enable_ifIX18is_constructible_vIS3_DpT_EEvE4typeELPv0ELb1EEESt10in_place_tDpOS8_(ptr noundef nonnull align 16 dereferenceable(32) %5, ptr noundef nonnull align 16 dereferenceable(16) %6) #18
  ret void
}

; Function Attrs: mustprogress nounwind uwtable
define linkonce_odr hidden noundef nonnull align 8 dereferenceable(8) ptr @_ZNSt5arrayImLm2EEixEm(ptr noundef nonnull align 8 dereferenceable(16) %0, i64 noundef %1) #2 comdat align 2 {
  %3 = alloca ptr, align 8
  %4 = alloca i64, align 8
  store ptr %0, ptr %3, align 8
  store i64 %1, ptr %4, align 8
  %5 = load ptr, ptr %3, align 8
  %6 = getelementptr inbounds %"struct.std::array.489", ptr %5, i32 0, i32 0
  %7 = load i64, ptr %4, align 8
  %8 = call noundef nonnull align 8 dereferenceable(8) ptr @_ZNSt14__array_traitsImLm2EE6_S_refERA2_Kmm(ptr noundef nonnull align 8 dereferenceable(16) %6, i64 noundef %7) #18
  ret ptr %8
}

; Function Attrs: mustprogress nounwind uwtable
define linkonce_odr hidden noundef nonnull align 8 dereferenceable(16) ptr @_ZN8WasmEdge10RefVariant7toArrayEv(ptr noundef nonnull align 16 dereferenceable(16) %0) #2 comdat align 2 {
  %2 = alloca ptr, align 8
  store ptr %0, ptr %2, align 8
  %3 = load ptr, ptr %2, align 8
  %4 = getelementptr inbounds %"struct.WasmEdge::RefVariant", ptr %3, i32 0, i32 0
  ret ptr %4
}

; Function Attrs: mustprogress nounwind uwtable
define linkonce_odr hidden noundef nonnull align 4 dereferenceable(8) ptr @_ZN8WasmEdge10RefVariant7getTypeEv(ptr noundef nonnull align 16 dereferenceable(16) %0) #2 comdat align 2 {
  %2 = alloca ptr, align 8
  store ptr %0, ptr %2, align 8
  %3 = load ptr, ptr %2, align 8
  %4 = call noundef nonnull align 8 dereferenceable(16) ptr @_ZN8WasmEdge10RefVariant7toArrayEv(ptr noundef nonnull align 16 dereferenceable(16) %3) #18
  %5 = call noundef nonnull align 8 dereferenceable(8) ptr @_ZNSt5arrayImLm2EEixEm(ptr noundef nonnull align 8 dereferenceable(16) %4, i64 noundef 0) #18
  ret ptr %5
}

; Function Attrs: mustprogress nounwind uwtable
define linkonce_odr hidden void @_ZN5cxx208expectedIN8WasmEdge10RefVariantENS1_7ErrCodeEEC2IJS2_ETnPNSt9enable_ifIX18is_constructible_vIS2_DpT_EEvE4typeELPv0ELb1EEESt10in_place_tDpOS7_(ptr noundef nonnull align 16 dereferenceable(32) %0, ptr noundef nonnull align 16 dereferenceable(16) %1) unnamed_addr #2 comdat align 2 {
  %3 = alloca ptr, align 8
  %4 = alloca ptr, align 8
  store ptr %0, ptr %3, align 8
  store ptr %1, ptr %4, align 8
  %5 = load ptr, ptr %3, align 8
  %6 = load ptr, ptr %4, align 8
  call void @_ZN5cxx206detail25expected_move_assign_baseIN8WasmEdge10RefVariantENS2_7ErrCodeELb0EECI2NS0_21expected_storage_baseIS3_S4_Lb1ELb1EEEIJS3_ETnPNSt9enable_ifIX18is_constructible_vIS3_DpT_EEvE4typeELPv0ELb1EEESt10in_place_tDpOS8_(ptr noundef nonnull align 16 dereferenceable(32) %5, ptr noundef nonnull align 16 dereferenceable(16) %6) #18
  call void @_ZN5cxx206detail26expected_default_ctor_baseIN8WasmEdge10RefVariantENS2_7ErrCodeELb1EEC2ESt10in_place_t(ptr noundef nonnull align 1 dereferenceable(1) %5)
  ret void
}

; Function Attrs: mustprogress nounwind uwtable
define linkonce_odr hidden void @_ZN8WasmEdge10RefVariant7setDataIvEEvRKNS_7ValTypeEPKT_(ptr noundef nonnull align 16 dereferenceable(16) %0, ptr noundef nonnull align 4 dereferenceable(8) %1, ptr noundef %2) #2 comdat align 2 {
  %4 = alloca ptr, align 8
  %5 = alloca ptr, align 8
  %6 = alloca ptr, align 8
  store ptr %0, ptr %4, align 8
  store ptr %1, ptr %5, align 8
  store ptr %2, ptr %6, align 8
  %7 = load ptr, ptr %4, align 8
  %8 = load ptr, ptr %5, align 8
  %9 = call noundef nonnull align 4 dereferenceable(8) ptr @_ZN8WasmEdge10RefVariant7getTypeEv(ptr noundef nonnull align 16 dereferenceable(16) %7) #18
  call void @llvm.memcpy.p0.p0.i64(ptr align 4 %9, ptr align 4 %8, i64 8, i1 false)
  %10 = load ptr, ptr %6, align 8
  %11 = ptrtoint ptr %10 to i64
  %12 = call noundef nonnull align 8 dereferenceable(16) ptr @_ZN8WasmEdge10RefVariant7toArrayEv(ptr noundef nonnull align 16 dereferenceable(16) %7) #18
  %13 = call noundef nonnull align 8 dereferenceable(8) ptr @_ZNSt5arrayImLm2EEixEm(ptr noundef nonnull align 8 dereferenceable(16) %12, i64 noundef 1) #18
  store i64 %11, ptr %13, align 8
  ret void
}

; Function Attrs: mustprogress nounwind uwtable
define linkonce_odr hidden void @_ZN8WasmEdge7ValTypeC2ENS_8TypeCodeE(ptr noundef nonnull align 4 dereferenceable(8) %0, i8 noundef zeroext %1) unnamed_addr #2 comdat align 2 {
  %3 = alloca ptr, align 8
  %4 = alloca i8, align 1
  store ptr %0, ptr %3, align 8
  store i8 %1, ptr %4, align 1
  %5 = load ptr, ptr %3, align 8
  %6 = getelementptr inbounds %"class.WasmEdge::ValType", ptr %5, i32 0, i32 0
  %7 = getelementptr inbounds %struct.anon, ptr %6, i32 0, i32 1
  store i8 0, ptr %7, align 1
  %8 = getelementptr inbounds %"class.WasmEdge::ValType", ptr %5, i32 0, i32 0
  %9 = getelementptr inbounds %struct.anon, ptr %8, i32 0, i32 4
  store i32 0, ptr %9, align 4
  %10 = load i8, ptr %4, align 1
  switch i8 %10, label %30 [
    i8 127, label %11
    i8 126, label %11
    i8 125, label %11
    i8 124, label %11
    i8 123, label %11
    i8 120, label %11
    i8 119, label %11
    i8 115, label %17
    i8 114, label %17
    i8 113, label %17
    i8 112, label %17
    i8 111, label %17
    i8 110, label %17
    i8 109, label %17
    i8 108, label %17
    i8 107, label %17
    i8 106, label %17
    i8 105, label %17
    i8 -128, label %23
    i8 100, label %29
    i8 99, label %29
  ]

11:                                               ; preds = %2, %2, %2, %2, %2, %2, %2
  %12 = load i8, ptr %4, align 1
  %13 = getelementptr inbounds %"class.WasmEdge::ValType", ptr %5, i32 0, i32 0
  %14 = getelementptr inbounds %struct.anon, ptr %13, i32 0, i32 2
  store i8 %12, ptr %14, align 2
  %15 = getelementptr inbounds %"class.WasmEdge::ValType", ptr %5, i32 0, i32 0
  %16 = getelementptr inbounds %struct.anon, ptr %15, i32 0, i32 3
  store i8 64, ptr %16, align 1
  br label %31

17:                                               ; preds = %2, %2, %2, %2, %2, %2, %2, %2, %2, %2, %2
  %18 = getelementptr inbounds %"class.WasmEdge::ValType", ptr %5, i32 0, i32 0
  %19 = getelementptr inbounds %struct.anon, ptr %18, i32 0, i32 2
  store i8 99, ptr %19, align 2
  %20 = load i8, ptr %4, align 1
  %21 = getelementptr inbounds %"class.WasmEdge::ValType", ptr %5, i32 0, i32 0
  %22 = getelementptr inbounds %struct.anon, ptr %21, i32 0, i32 3
  store i8 %20, ptr %22, align 1
  br label %31

23:                                               ; preds = %2
  %24 = getelementptr inbounds %"class.WasmEdge::ValType", ptr %5, i32 0, i32 0
  %25 = getelementptr inbounds %struct.anon, ptr %24, i32 0, i32 2
  store i8 -128, ptr %25, align 2
  %26 = load i8, ptr %4, align 1
  %27 = getelementptr inbounds %"class.WasmEdge::ValType", ptr %5, i32 0, i32 0
  %28 = getelementptr inbounds %struct.anon, ptr %27, i32 0, i32 3
  store i8 %26, ptr %28, align 1
  br label %31

29:                                               ; preds = %2, %2
  br label %30

30:                                               ; preds = %29, %2
  unreachable

31:                                               ; preds = %23, %17, %11
  ret void
}

; Function Attrs: mustprogress nounwind uwtable
define linkonce_odr hidden void @_ZN5cxx208expectedIN8WasmEdge10RefVariantENS1_7ErrCodeEEC2IS2_TnPNSt9enable_ifIXaasr6traitsE17enable_in_place_vIT_E16is_convertible_vIS7_S2_EEvE4typeELPv0ELb1EEEOS7_(ptr noundef nonnull align 16 dereferenceable(32) %0, ptr noundef nonnull align 16 dereferenceable(16) %1) unnamed_addr #2 comdat align 2 {
  %3 = alloca ptr, align 8
  %4 = alloca ptr, align 8
  store ptr %0, ptr %3, align 8
  store ptr %1, ptr %4, align 8
  %5 = load ptr, ptr %3, align 8
  %6 = load ptr, ptr %4, align 8
  call void @_ZN5cxx208expectedIN8WasmEdge10RefVariantENS1_7ErrCodeEEC2IJS2_ETnPNSt9enable_ifIX18is_constructible_vIS2_DpT_EEvE4typeELPv0ELb1EEESt10in_place_tDpOS7_(ptr noundef nonnull align 16 dereferenceable(32) %5, ptr noundef nonnull align 16 dereferenceable(16) %6) #18
  ret void
}

; Function Attrs: mustprogress nounwind uwtable
define linkonce_odr hidden void @_ZN8WasmEdge10RefVariantC2EPKNS_7Runtime8Instance16FunctionInstanceE(ptr noundef nonnull align 16 dereferenceable(16) %0, ptr noundef %1) unnamed_addr #2 comdat align 2 {
  %3 = alloca ptr, align 8
  %4 = alloca ptr, align 8
  %5 = alloca %"class.WasmEdge::ValType", align 4
  store ptr %0, ptr %3, align 8
  store ptr %1, ptr %4, align 8
  %6 = load ptr, ptr %3, align 8
  call void @_ZN8WasmEdge7ValTypeC2ENS_8TypeCodeE(ptr noundef nonnull align 4 dereferenceable(8) %5, i8 noundef zeroext 112) #18
  %7 = load ptr, ptr %4, align 8
  call void @_ZN8WasmEdge10RefVariant7setDataIvEEvRKNS_7ValTypeEPKT_(ptr noundef nonnull align 16 dereferenceable(16) %6, ptr noundef nonnull align 4 dereferenceable(8) %5, ptr noundef %7) #18
  ret void
}

; Function Attrs: mustprogress nounwind uwtable
define void @_ZN8WasmEdge8Executor8Executor7refFuncERNS_7Runtime12StackManagerEj(ptr dead_on_unwind noalias writable sret(%"class.cxx20::expected.102") align 16 %0, ptr noundef nonnull align 8 dereferenceable(408) %1, ptr noundef nonnull align 8 dereferenceable(48) %2, i32 noundef %3) #2 align 2 personality ptr @__gxx_personality_v0 {
  %5 = alloca ptr, align 8
  %6 = alloca ptr, align 8
  %7 = alloca ptr, align 8
  %8 = alloca i32, align 4
  %9 = alloca ptr, align 8
  %10 = alloca %"struct.WasmEdge::RefVariant", align 16
  store ptr %0, ptr %5, align 8
  store ptr %1, ptr %6, align 8
  store ptr %2, ptr %7, align 8
  store i32 %3, ptr %8, align 4
  %11 = load ptr, ptr %6, align 8
  %12 = load ptr, ptr %7, align 8
  %13 = load i32, ptr %8, align 4
  %14 = invoke noundef ptr @_ZNK8WasmEdge8Executor8Executor16getFuncInstByIdxERNS_7Runtime12StackManagerEj(ptr noundef nonnull align 8 dereferenceable(408) %11, ptr noundef nonnull align 8 dereferenceable(48) %12, i32 noundef %13)
          to label %15 unwind label %23

15:                                               ; preds = %4
  store ptr %14, ptr %9, align 8
  %16 = load ptr, ptr %9, align 8
  %17 = icmp ne ptr %16, null
  br i1 %17, label %18, label %19

18:                                               ; preds = %15
  br label %21

19:                                               ; preds = %15
  unreachable

20:                                               ; No predecessors!
  br label %21

21:                                               ; preds = %20, %18
  %22 = load ptr, ptr %9, align 8
  call void @_ZN8WasmEdge10RefVariantC2EPKNS_7Runtime8Instance16FunctionInstanceE(ptr noundef nonnull align 16 dereferenceable(16) %10, ptr noundef %22) #18
  call void @_ZN5cxx208expectedIN8WasmEdge10RefVariantENS1_7ErrCodeEEC2IS2_TnPNSt9enable_ifIXaasr6traitsE17enable_in_place_vIT_E16is_convertible_vIS7_S2_EEvE4typeELPv0ELb1EEEOS7_(ptr noundef nonnull align 16 dereferenceable(32) %0, ptr noundef nonnull align 16 dereferenceable(16) %10) #18
  ret void

23:                                               ; preds = %4
  %24 = landingpad { ptr, i32 }
          catch ptr null
  %25 = extractvalue { ptr, i32 } %24, 0
  call void @__clang_call_terminate(ptr %25) #20
  unreachable
}