; Function Attrs: mustprogress nounwind uwtable
define void @_ZN8WasmEdge8Executor8Executor7refFuncERNS_7Runtime12StackManagerEj(ptr dead_on_unwind noalias nocapture writable writeonly sret(%"class.cxx20::expected.102") align 16 %0, ptr noundef nonnull align 8 dereferenceable(408) %1, ptr noundef nonnull align 8 dereferenceable(48) %2, i32 noundef %3) local_unnamed_addr #4 align 2 personality ptr @__gxx_personality_v0 {
  %5 = invoke noundef ptr @_ZNK8WasmEdge8Executor8Executor16getFuncInstByIdxERNS_7Runtime12StackManagerEj(ptr noundef nonnull align 8 dereferenceable(408) %1, ptr noundef nonnull align 8 dereferenceable(48) %2, i32 noundef %3)
          to label %6 unwind label %10

6:                                                ; preds = %4
  %7 = icmp ne ptr %5, null
  tail call void @llvm.assume(i1 %7)
  %8 = ptrtoint ptr %5 to i64
  store i8 1, ptr %0, align 16
  %9 = getelementptr inbounds i8, ptr %0, i64 16
  store i64 1885536256, ptr %9, align 16
  %.sroa.2.0..sroa_idx = getelementptr inbounds i8, ptr %0, i64 24
  store i64 %8, ptr %.sroa.2.0..sroa_idx, align 8
  ret void

10:                                               ; preds = %4
  %11 = landingpad { ptr, i32 }
          catch ptr null
  %12 = extractvalue { ptr, i32 } %11, 0
  tail call void @__clang_call_terminate(ptr %12) #24
  unreachable
}